target datalayout = "e-m:e-p270:32:32-p271:32:32-p272:64:64-i64:64-i128:128-f80:128-n8:16:32:64-S128"
target triple = "x86_64-pc-linux-gnu"

%struct.trace_key = type { ptr, i32, i8 }
%struct.cache_entry = type { %struct.hashmap_entry, %struct.stat_data, i32, i32, i32, i32, i32, %struct.object_id, [0 x i8] }
%struct.hashmap_entry = type { ptr, i32 }
%struct.stat_data = type { %struct.cache_time, %struct.cache_time, i32, i32, i32, i32, i32 }
%struct.cache_time = type { i32, i32 }
%struct.object_id = type { [32 x i8], i32 }
%struct.checkout = type { ptr, ptr, i32, ptr, ptr, %struct.checkout_metadata, i8 }
%struct.checkout_metadata = type { ptr, %struct.object_id, %struct.object_id }
%struct.index_state = type { ptr, i32, i32, i32, i32, ptr, ptr, ptr, %struct.cache_time, i8, i32, %struct.hashmap, %struct.hashmap, %struct.object_id, ptr, ptr, ptr, ptr, ptr, ptr, ptr }
%struct.hashmap = type { ptr, ptr, ptr, i32, i32, i32, i32, i8 }

@trace_fsmonitor = external global %struct.trace_key, align 8
@.str.11 = private unnamed_addr constant [14 x i8] c"./fsmonitor.h\00", align 1
@.str.12 = private unnamed_addr constant [28 x i8] c"mark_fsmonitor_invalid '%s'\00", align 1

; Function Attrs: inlinehint nounwind uwtable
define internal i32 @trace_pass_fl(ptr noundef %0) #4 {
  %2 = alloca ptr, align 8
  store ptr %0, ptr %2, align 8, !tbaa !107
  %3 = load ptr, ptr %2, align 8, !tbaa !107
  %4 = getelementptr inbounds nuw %struct.trace_key, ptr %3, i32 0, i32 1
  %5 = load i32, ptr %4, align 8, !tbaa !109
  %6 = icmp ne i32 %5, 0
  br i1 %6, label %15, label %7

7:                                                ; preds = %1
  %8 = load ptr, ptr %2, align 8, !tbaa !107
  %9 = getelementptr inbounds nuw %struct.trace_key, ptr %8, i32 0, i32 2
  %10 = load i8, ptr %9, align 4
  %11 = and i8 %10, 1
  %12 = zext i8 %11 to i32
  %13 = icmp ne i32 %12, 0
  %14 = xor i1 %13, true
  br label %15

15:                                               ; preds = %7, %1
  %16 = phi i1 [ true, %1 ], [ %14, %7 ]
  %17 = zext i1 %16 to i32
  ret i32 %17
}

; Function Attrs: inlinehint nounwind uwtable
define internal void @mark_fsmonitor_invalid(ptr noundef %0, ptr noundef %1) #4 {
  %3 = alloca ptr, align 8
  %4 = alloca ptr, align 8
  %5 = alloca i32, align 4
  store ptr %0, ptr %3, align 8, !tbaa !75
  store ptr %1, ptr %4, align 8, !tbaa !4
  call void @llvm.lifetime.start.p0(i64 4, ptr %5) #10
  %6 = load ptr, ptr %3, align 8, !tbaa !75
  %7 = getelementptr inbounds nuw %struct.index_state, ptr %6, i32 0, i32 19
  %8 = load ptr, ptr %7, align 8, !tbaa !76
  %9 = call i32 @fsm_settings__get_mode(ptr noundef %8)
  store i32 %9, ptr %5, align 4, !tbaa !16
  %10 = load i32, ptr %5, align 4, !tbaa !16
  %11 = icmp sgt i32 %10, 0
  br i1 %11, label %12, label %31

12:                                               ; preds = %2
  %13 = load ptr, ptr %4, align 8, !tbaa !4
  %14 = getelementptr inbounds nuw %struct.cache_entry, ptr %13, i32 0, i32 3
  %15 = load i32, ptr %14, align 8, !tbaa !16
  %16 = and i32 %15, -2097153
  store i32 %16, ptr %14, align 8, !tbaa !16
  %17 = load ptr, ptr %3, align 8, !tbaa !75
  %18 = load ptr, ptr %4, align 8, !tbaa !4
  %19 = getelementptr inbounds nuw %struct.cache_entry, ptr %18, i32 0, i32 8
  %20 = getelementptr inbounds [0 x i8], ptr %19, i64 0, i64 0
  call void @untracked_cache_invalidate_path(ptr noundef %17, ptr noundef %20, i32 noundef 1)
  br label %21

21:                                               ; preds = %12
  %22 = call i32 @trace_pass_fl(ptr noundef @trace_fsmonitor)
  %23 = icmp ne i32 %22, 0
  br i1 %23, label %24, label %28

24:                                               ; preds = %21
  %25 = load ptr, ptr %4, align 8, !tbaa !4
  %26 = getelementptr inbounds nuw %struct.cache_entry, ptr %25, i32 0, i32 8
  %27 = getelementptr inbounds [0 x i8], ptr %26, i64 0, i64 0
  call void (ptr, i32, ptr, ptr, ...) @trace_printf_key_fl(ptr noundef @.str.11, i32 noundef 67, ptr noundef @trace_fsmonitor, ptr noundef @.str.12, ptr noundef %27)
  br label %28

28:                                               ; preds = %24, %21
  br label %29

29:                                               ; preds = %28
  br label %30

30:                                               ; preds = %29
  br label %31

31:                                               ; preds = %30, %2
  call void @llvm.lifetime.end.p0(i64 4, ptr %5) #10
  ret void
}

; Function Attrs: nounwind uwtable
define dso_local void @update_ce_after_write(ptr noundef %0, ptr noundef %1, ptr noundef %2) #0 {
  %4 = alloca ptr, align 8
  %5 = alloca ptr, align 8
  %6 = alloca ptr, align 8
  store ptr %0, ptr %4, align 8, !tbaa !18
  store ptr %1, ptr %5, align 8, !tbaa !4
  store ptr %2, ptr %6, align 8, !tbaa !20
  %7 = load ptr, ptr %4, align 8, !tbaa !18
  %8 = getelementptr inbounds nuw %struct.checkout, ptr %7, i32 0, i32 6
  %9 = load i8, ptr %8, align 8
  %10 = lshr i8 %9, 4
  %11 = and i8 %10, 1
  %12 = zext i8 %11 to i32
  %13 = icmp ne i32 %12, 0
  br i1 %13, label %14, label %34

14:                                               ; preds = %3
  %15 = load ptr, ptr %4, align 8, !tbaa !18
  %16 = getelementptr inbounds nuw %struct.checkout, ptr %15, i32 0, i32 0
  %17 = load ptr, ptr %16, align 8, !tbaa !46
  %18 = load ptr, ptr %5, align 8, !tbaa !4
  %19 = load ptr, ptr %6, align 8, !tbaa !20
  call void @fill_stat_cache_info(ptr noundef %17, ptr noundef %18, ptr noundef %19)
  %20 = load ptr, ptr %5, align 8, !tbaa !4
  %21 = getelementptr inbounds nuw %struct.cache_entry, ptr %20, i32 0, i32 3
  %22 = load i32, ptr %21, align 8, !tbaa !16
  %23 = or i32 %22, 134217728
  store i32 %23, ptr %21, align 8, !tbaa !16
  %24 = load ptr, ptr %4, align 8, !tbaa !18
  %25 = getelementptr inbounds nuw %struct.checkout, ptr %24, i32 0, i32 0
  %26 = load ptr, ptr %25, align 8, !tbaa !46
  %27 = load ptr, ptr %5, align 8, !tbaa !4
  call void @mark_fsmonitor_invalid(ptr noundef %26, ptr noundef %27)
  %28 = load ptr, ptr %4, align 8, !tbaa !18
  %29 = getelementptr inbounds nuw %struct.checkout, ptr %28, i32 0, i32 0
  %30 = load ptr, ptr %29, align 8, !tbaa !46
  %31 = getelementptr inbounds nuw %struct.index_state, ptr %30, i32 0, i32 4
  %32 = load i32, ptr %31, align 4, !tbaa !64
  %33 = or i32 %32, 2
  store i32 %33, ptr %31, align 4, !tbaa !64
  br label %34

34:                                               ; preds = %14, %3
  ret void
}