; Function Attrs: nounwind uwtable
define dso_local void @update_ce_after_write(ptr noundef readonly captures(none) %0, ptr noundef %1, ptr noundef %2) local_unnamed_addr #0 {
  %4 = getelementptr inbounds nuw i8, ptr %0, i64 120
  %5 = load i8, ptr %4, align 8
  %6 = and i8 %5, 16
  %.not = icmp eq i8 %6, 0
  br i1 %.not, label %29, label %7

7:                                                ; preds = %3
  %8 = load ptr, ptr %0, align 8, !tbaa !35
  tail call void @fill_stat_cache_info(ptr noundef %8, ptr noundef %1, ptr noundef %2) #16
  %9 = getelementptr inbounds nuw i8, ptr %1, i64 56
  %10 = load i32, ptr %9, align 8, !tbaa !11
  %11 = or i32 %10, 134217728
  store i32 %11, ptr %9, align 8, !tbaa !11
  %12 = load ptr, ptr %0, align 8, !tbaa !35
  %13 = getelementptr inbounds nuw i8, ptr %12, i64 240
  %14 = load ptr, ptr %13, align 8, !tbaa !45
  %15 = tail call i32 @fsm_settings__get_mode(ptr noundef %14) #16
  %16 = icmp sgt i32 %15, 0
  br i1 %16, label %17, label %mark_fsmonitor_invalid.exit

17:                                               ; preds = %7
  %18 = load i32, ptr %9, align 8, !tbaa !11
  %19 = and i32 %18, -2097153
  store i32 %19, ptr %9, align 8, !tbaa !11
  %20 = getelementptr inbounds nuw i8, ptr %1, i64 108
  tail call void @untracked_cache_invalidate_path(ptr noundef nonnull %12, ptr noundef nonnull %20, i32 noundef 1) #16
  %21 = load i32, ptr getelementptr inbounds nuw (i8, ptr @trace_fsmonitor, i64 8), align 8, !tbaa !57
  %.not.i.i = icmp eq i32 %21, 0
  %22 = load i8, ptr getelementptr inbounds nuw (i8, ptr @trace_fsmonitor, i64 12), align 4
  %23 = and i8 %22, 1
  %.not5.i = icmp ne i8 %23, 0
  %.not.i = select i1 %.not.i.i, i1 %.not5.i, i1 false
  br i1 %.not.i, label %mark_fsmonitor_invalid.exit, label %24

24:                                               ; preds = %17
  tail call void (ptr, i32, ptr, ptr, ...) @trace_printf_key_fl(ptr noundef nonnull @.str.11, i32 noundef 67, ptr noundef nonnull @trace_fsmonitor, ptr noundef nonnull @.str.12, ptr noundef nonnull %20) #16
  br label %mark_fsmonitor_invalid.exit

mark_fsmonitor_invalid.exit:                      ; preds = %7, %17, %24
  %25 = load ptr, ptr %0, align 8, !tbaa !35
  %26 = getelementptr inbounds nuw i8, ptr %25, i64 20
  %27 = load i32, ptr %26, align 4, !tbaa !59
  %28 = or i32 %27, 2
  store i32 %28, ptr %26, align 4, !tbaa !59
  br label %29

29:                                               ; preds = %mark_fsmonitor_invalid.exit, %3
  ret void
}